target datalayout = "e-m:e-p270:32:32-p271:32:32-p272:64:64-i64:64-i128:128-f80:128-n8:16:32:64-S128"
target triple = "x86_64-pc-linux-gnu"

@XZ_SIG = external global [6 x i8], align 1

; Function Attrs: nounwind uwtable
define i32 @Xz_ReadHeader(ptr noundef %0, ptr noundef %1) #0 {
  %3 = alloca i32, align 4
  %4 = alloca ptr, align 8
  %5 = alloca ptr, align 8
  %6 = alloca [12 x i8], align 1
  %7 = alloca i32, align 4
  store ptr %0, ptr %4, align 8
  store ptr %1, ptr %5, align 8
  %8 = load ptr, ptr %5, align 8
  %9 = getelementptr inbounds [12 x i8], ptr %6, i64 0, i64 0
  %10 = call i32 @SeqInStream_Read2(ptr noundef %8, ptr noundef %9, i64 noundef 12, i32 noundef 17)
  store i32 %10, ptr %7, align 4
  %11 = load i32, ptr %7, align 4
  %12 = icmp ne i32 %11, 0
  br i1 %12, label %13, label %15

13:                                               ; preds = %2
  %14 = load i32, ptr %7, align 4
  store i32 %14, ptr %3, align 4
  br label %24

15:                                               ; preds = %2
  %16 = getelementptr inbounds [12 x i8], ptr %6, i64 0, i64 0
  %17 = call i32 @memcmp(ptr noundef %16, ptr noundef @XZ_SIG, i64 noundef 6) #4
  %18 = icmp ne i32 %17, 0
  br i1 %18, label %19, label %20

19:                                               ; preds = %15
  store i32 17, ptr %3, align 4
  br label %24

20:                                               ; preds = %15
  %21 = load ptr, ptr %4, align 8
  %22 = getelementptr inbounds [12 x i8], ptr %6, i64 0, i64 0
  %23 = call i32 @Xz_ParseHeader(ptr noundef %21, ptr noundef %22)
  store i32 %23, ptr %3, align 4
  br label %24

24:                                               ; preds = %20, %19, %13
  %25 = load i32, ptr %3, align 4
  ret i32 %25
}