; Function Attrs: nounwind uwtable
define i32 @Xz_ReadHeader(ptr noundef %0, ptr noundef %1) local_unnamed_addr #0 {
  %3 = alloca [12 x i8], align 1
  %4 = call i32 @SeqInStream_Read2(ptr noundef %1, ptr noundef nonnull %3, i64 noundef 12, i32 noundef 17) #9
  %.not = icmp eq i32 %4, 0
  br i1 %.not, label %5, label %8

5:                                                ; preds = %2
  %bcmp = call i32 @bcmp(ptr noundef nonnull dereferenceable(6) %3, ptr noundef nonnull dereferenceable(6) @XZ_SIG, i64 6)
  %.not5 = icmp eq i32 %bcmp, 0
  br i1 %.not5, label %6, label %8

6:                                                ; preds = %5
  %7 = call i32 @Xz_ParseHeader(ptr noundef %0, ptr noundef nonnull %3) #9
  br label %8

8:                                                ; preds = %5, %2, %6
  %.0 = phi i32 [ %7, %6 ], [ %4, %2 ], [ 17, %5 ]
  ret i32 %.0
}